target datalayout = "e-m:e-p270:32:32-p271:32:32-p272:64:64-i64:64-i128:128-f80:128-n8:16:32:64-S128"
target triple = "x86_64-pc-linux-gnu"

; Function Attrs: nounwind uwtable
define internal i32 @SDL_GetLongBlendMode(i32 noundef %0) #0 {
  %2 = alloca i32, align 4
  %3 = alloca i32, align 4
  store i32 %0, ptr %3, align 4
  %4 = load i32, ptr %3, align 4
  %5 = icmp eq i32 %4, 0
  br i1 %5, label %6, label %7

6:                                                ; preds = %1
  store i32 18940193, ptr %2, align 4
  br label %33

7:                                                ; preds = %1
  %8 = load i32, ptr %3, align 4
  %9 = icmp eq i32 %8, 1
  br i1 %9, label %10, label %11

10:                                               ; preds = %7
  store i32 102827601, ptr %2, align 4
  br label %33

11:                                               ; preds = %7
  %12 = load i32, ptr %3, align 4
  %13 = icmp eq i32 %12, 16
  br i1 %13, label %14, label %15

14:                                               ; preds = %11
  store i32 102827553, ptr %2, align 4
  br label %33

15:                                               ; preds = %11
  %16 = load i32, ptr %3, align 4
  %17 = icmp eq i32 %16, 2
  br i1 %17, label %18, label %19

18:                                               ; preds = %15
  store i32 34669137, ptr %2, align 4
  br label %33

19:                                               ; preds = %15
  %20 = load i32, ptr %3, align 4
  %21 = icmp eq i32 %20, 32
  br i1 %21, label %22, label %23

22:                                               ; preds = %19
  store i32 34669089, ptr %2, align 4
  br label %33

23:                                               ; preds = %19
  %24 = load i32, ptr %3, align 4
  %25 = icmp eq i32 %24, 4
  br i1 %25, label %26, label %27

26:                                               ; preds = %23
  store i32 34669329, ptr %2, align 4
  br label %33

27:                                               ; preds = %23
  %28 = load i32, ptr %3, align 4
  %29 = icmp eq i32 %28, 8
  br i1 %29, label %30, label %31

30:                                               ; preds = %27
  store i32 34670193, ptr %2, align 4
  br label %33

31:                                               ; preds = %27
  %32 = load i32, ptr %3, align 4
  store i32 %32, ptr %2, align 4
  br label %33

33:                                               ; preds = %31, %30, %26, %22, %18, %14, %10, %6
  %34 = load i32, ptr %2, align 4
  ret i32 %34
}

; Function Attrs: nounwind uwtable
define hidden i32 @SDL_GetBlendModeDstColorFactor(i32 noundef %0) #0 {
  %2 = alloca i32, align 4
  store i32 %0, ptr %2, align 4
  %3 = load i32, ptr %2, align 4
  %4 = call i32 @SDL_GetLongBlendMode(i32 noundef %3)
  store i32 %4, ptr %2, align 4
  %5 = load i32, ptr %2, align 4
  %6 = lshr i32 %5, 8
  %7 = and i32 %6, 15
  ret i32 %7
}