; Function Attrs: mustprogress nofree norecurse nosync nounwind willreturn memory(none) uwtable
define hidden range(i32 0, 16) i32 @SDL_GetBlendModeDstColorFactor(i32 noundef %0) local_unnamed_addr #5 {
  switch i32 %0, label %5 [
    i32 0, label %SDL_GetLongBlendMode.exit
    i32 1, label %2
    i32 16, label %2
    i32 2, label %3
    i32 32, label %3
    i32 4, label %4
    i32 8, label %2
  ]

2:                                                ; preds = %1, %1, %1
  br label %SDL_GetLongBlendMode.exit

3:                                                ; preds = %1, %1
  br label %SDL_GetLongBlendMode.exit

4:                                                ; preds = %1
  br label %SDL_GetLongBlendMode.exit

5:                                                ; preds = %1
  %6 = lshr i32 %0, 8
  %7 = and i32 %6, 15
  br label %SDL_GetLongBlendMode.exit

SDL_GetLongBlendMode.exit:                        ; preds = %1, %2, %3, %4, %5
  %.0.i = phi i32 [ 6, %2 ], [ 2, %3 ], [ 3, %4 ], [ %7, %5 ], [ 1, %1 ]
  ret i32 %.0.i
}